target datalayout = "e-m:e-p270:32:32-p271:32:32-p272:64:64-i64:64-i128:128-f80:128-n8:16:32:64-S128"
target triple = "x86_64-pc-linux-gnu"

%struct.expert_field = type { i32, i32 }
%struct._packet_info = type { ptr, ptr, i32, i32, %struct.nstime_t, %struct.nstime_t, %struct.nstime_t, i8, ptr, ptr, ptr, ptr, %struct._address, %struct._address, %struct._address, %struct._address, %struct._address, %struct._address, i32, ptr, i8, [3 x i8], %struct.anon, i32, i32, i32, i32, ptr, i8, ptr, ptr, i16, i16, i32, i32, i16, i32, i32, ptr, ptr, ptr, i8, i8, i16, i16, i16, i32, i16, i16, ptr, ptr, ptr, ptr, ptr, i32, i32 }
%struct.nstime_t = type { i64, i32 }
%struct._address = type { i32, i32, ptr, ptr }
%struct.anon = type { i8, [3 x i8] }

@.str.1 = private unnamed_addr constant [3 x i8] c"%s\00", align 1
@ei_gtpv2_ie_data_not_dissected = internal global %struct.expert_field zeroinitializer, align 4
@hf_gtpv2_fqdn = internal global i32 0, align 4

; Function Attrs: null_pointer_is_valid sspstrong uwtable
define internal i32 @decode_gtpv2_fqdn(ptr noundef %0, ptr noundef %1, ptr noundef %2, ptr noundef %3, i32 noundef %4, i16 noundef zeroext %5) #1 {
  %7 = alloca ptr, align 8
  %8 = alloca ptr, align 8
  %9 = alloca ptr, align 8
  %10 = alloca ptr, align 8
  %11 = alloca i32, align 4
  %12 = alloca i16, align 2
  %13 = alloca i32, align 4
  %14 = alloca ptr, align 8
  store ptr %0, ptr %7, align 8
  store ptr %1, ptr %8, align 8
  store ptr %2, ptr %9, align 8
  store ptr %3, ptr %10, align 8
  store i32 %4, ptr %11, align 4
  store i16 %5, ptr %12, align 2
  call void @llvm.lifetime.start.p0(i64 4, ptr %13) #11
  call void @llvm.lifetime.start.p0(i64 8, ptr %14) #11
  store ptr null, ptr %14, align 8
  %15 = load i32, ptr %11, align 4
  %16 = load i16, ptr %12, align 2
  %17 = zext i16 %16 to i32
  %18 = icmp slt i32 %15, %17
  br i1 %18, label %19, label %51

19:                                               ; preds = %6
  %20 = load ptr, ptr %7, align 8
  %21 = load i32, ptr %11, align 4
  %22 = call zeroext i8 @tvb_get_uint8(ptr noundef %20, i32 noundef %21)
  %23 = zext i8 %22 to i32
  store i32 %23, ptr %13, align 4
  %24 = load i32, ptr %13, align 4
  %25 = icmp slt i32 %24, 64
  br i1 %25, label %26, label %37

26:                                               ; preds = %19
  %27 = load ptr, ptr %9, align 8
  %28 = load i32, ptr @hf_gtpv2_fqdn, align 4
  %29 = load ptr, ptr %7, align 8
  %30 = load i32, ptr %11, align 4
  %31 = load i16, ptr %12, align 2
  %32 = zext i16 %31 to i32
  %33 = load ptr, ptr %8, align 8
  %34 = getelementptr inbounds nuw %struct._packet_info, ptr %33, i32 0, i32 51
  %35 = load ptr, ptr %34, align 8
  %36 = call ptr @proto_tree_add_item_ret_string(ptr noundef %27, i32 noundef %28, ptr noundef %29, i32 noundef %30, i32 noundef %32, i32 noundef 84, ptr noundef %35, ptr noundef %14)
  br label %48

37:                                               ; preds = %19
  %38 = load ptr, ptr %9, align 8
  %39 = load i32, ptr @hf_gtpv2_fqdn, align 4
  %40 = load ptr, ptr %7, align 8
  %41 = load i32, ptr %11, align 4
  %42 = load i16, ptr %12, align 2
  %43 = zext i16 %42 to i32
  %44 = load ptr, ptr %8, align 8
  %45 = getelementptr inbounds nuw %struct._packet_info, ptr %44, i32 0, i32 51
  %46 = load ptr, ptr %45, align 8
  %47 = call ptr @proto_tree_add_item_ret_string(ptr noundef %38, i32 noundef %39, ptr noundef %40, i32 noundef %41, i32 noundef %43, i32 noundef 0, ptr noundef %46, ptr noundef %14)
  br label %48

48:                                               ; preds = %37, %26
  %49 = load ptr, ptr %10, align 8
  %50 = load ptr, ptr %14, align 8
  call void (ptr, ptr, ...) @proto_item_append_text(ptr noundef %49, ptr noundef @.str.1, ptr noundef %50)
  br label %51

51:                                               ; preds = %48, %6
  %52 = load i16, ptr %12, align 2
  %53 = zext i16 %52 to i32
  call void @llvm.lifetime.end.p0(i64 8, ptr %14) #11
  call void @llvm.lifetime.end.p0(i64 4, ptr %13) #11
  ret i32 %53
}

; Function Attrs: null_pointer_is_valid sspstrong uwtable
define internal void @dissect_gtpv2_ie_pgw_fqdn(ptr noundef %0, ptr noundef %1, ptr noundef %2, ptr noundef %3, i16 noundef zeroext %4, i8 noundef zeroext %5, i8 noundef zeroext %6, ptr noundef %7) #1 {
  %9 = alloca ptr, align 8
  %10 = alloca ptr, align 8
  %11 = alloca ptr, align 8
  %12 = alloca ptr, align 8
  %13 = alloca i16, align 2
  %14 = alloca i8, align 1
  %15 = alloca i8, align 1
  %16 = alloca ptr, align 8
  %17 = alloca i32, align 4
  store ptr %0, ptr %9, align 8
  store ptr %1, ptr %10, align 8
  store ptr %2, ptr %11, align 8
  store ptr %3, ptr %12, align 8
  store i16 %4, ptr %13, align 2
  store i8 %5, ptr %14, align 1
  store i8 %6, ptr %15, align 1
  store ptr %7, ptr %16, align 8
  call void @llvm.lifetime.start.p0(i64 4, ptr %17) #11
  store i32 0, ptr %17, align 4
  %18 = load ptr, ptr %9, align 8
  %19 = load ptr, ptr %10, align 8
  %20 = load ptr, ptr %11, align 8
  %21 = load ptr, ptr %12, align 8
  %22 = load i32, ptr %17, align 4
  %23 = load i16, ptr %13, align 2
  %24 = call i32 @decode_gtpv2_fqdn(ptr noundef %18, ptr noundef %19, ptr noundef %20, ptr noundef %21, i32 noundef %22, i16 noundef zeroext %23)
  store i32 %24, ptr %17, align 4
  %25 = load i32, ptr %17, align 4
  %26 = load i16, ptr %13, align 2
  %27 = zext i16 %26 to i32
  %28 = icmp slt i32 %25, %27
  br i1 %28, label %29, label %39

29:                                               ; preds = %8
  %30 = load ptr, ptr %11, align 8
  %31 = load ptr, ptr %10, align 8
  %32 = load ptr, ptr %9, align 8
  %33 = load i32, ptr %17, align 4
  %34 = load i16, ptr %13, align 2
  %35 = zext i16 %34 to i32
  %36 = load i32, ptr %17, align 4
  %37 = sub i32 %35, %36
  %38 = call ptr @proto_tree_add_expert(ptr noundef %30, ptr noundef %31, ptr noundef @ei_gtpv2_ie_data_not_dissected, ptr noundef %32, i32 noundef %33, i32 noundef %37)
  br label %39

39:                                               ; preds = %29, %8
  call void @llvm.lifetime.end.p0(i64 4, ptr %17) #11
  ret void
}